target datalayout = "e-m:e-p270:32:32-p271:32:32-p272:64:64-i64:64-i128:128-f80:128-n8:16:32:64-S128"
target triple = "x86_64-pc-linux-gnu"

%"class.std::__cxx11::basic_string" = type { %"struct.std::__cxx11::basic_string<char>::_Alloc_hider", i64, %union.anon }
%"struct.std::__cxx11::basic_string<char>::_Alloc_hider" = type { ptr }
%union.anon = type { i64, [8 x i8] }
%"struct.std::_Vector_base.41" = type { %"struct.std::_Vector_base<const Variable *, std::allocator<const Variable *>>::_Vector_impl" }
%"struct.std::_Vector_base<const Variable *, std::allocator<const Variable *>>::_Vector_impl" = type { %"struct.std::_Vector_base<const Variable *, std::allocator<const Variable *>>::_Vector_impl_data" }
%"struct.std::_Vector_base<const Variable *, std::allocator<const Variable *>>::_Vector_impl_data" = type { ptr, ptr, ptr }
%"class.std::allocator.20" = type { i8 }

@.str.3 = private unnamed_addr constant [3 x i8] c", \00", align 1
@.str.12 = private unnamed_addr constant [5 x i8] c"[%d]\00", align 1
@.str.28 = private unnamed_addr constant [3 x i8] c");\00", align 1
@.str.30 = private unnamed_addr constant [17 x i8] c"printf(\22index = \00", align 1
@.str.31 = private unnamed_addr constant [6 x i8] c"\\n\22, \00", align 1

; Function Attrs: mustprogress nounwind uwtable
define linkonce_odr dso_local noundef nonnull align 8 dereferenceable(8) ptr @_ZNKSt6vectorIPK8VariableSaIS2_EEixEm(ptr noundef nonnull align 8 dereferenceable(24) %0, i64 noundef %1) #5 comdat align 2 {
  %3 = alloca ptr, align 8
  %4 = alloca i64, align 8
  store ptr %0, ptr %3, align 8
  store i64 %1, ptr %4, align 8
  %5 = load ptr, ptr %3, align 8
  %6 = getelementptr inbounds %"struct.std::_Vector_base.41", ptr %5, i32 0, i32 0
  %7 = getelementptr inbounds %"struct.std::_Vector_base<const Variable *, std::allocator<const Variable *>>::_Vector_impl_data", ptr %6, i32 0, i32 0
  %8 = load ptr, ptr %7, align 8
  %9 = load i64, ptr %4, align 8
  %10 = getelementptr inbounds ptr, ptr %8, i64 %9
  ret ptr %10
}

; Function Attrs: mustprogress uwtable
define dso_local void @_ZNK13ArrayVariable20make_print_index_strB5cxx11ERKSt6vectorIPK8VariableSaIS3_EE(ptr dead_on_unwind noalias writable sret(%"class.std::__cxx11::basic_string") align 8 %0, ptr noundef nonnull align 8 dereferenceable(288) %1, ptr noundef nonnull align 8 dereferenceable(24) %2) #4 align 2 personality ptr @__gxx_personality_v0 {
  %4 = alloca ptr, align 8
  %5 = alloca ptr, align 8
  %6 = alloca ptr, align 8
  %7 = alloca i64, align 8
  %8 = alloca i1, align 1
  %9 = alloca %"class.std::allocator.20", align 1
  %10 = alloca ptr, align 8
  %11 = alloca i32, align 4
  %12 = alloca %"class.std::__cxx11::basic_string", align 8
  store ptr %0, ptr %4, align 8
  store ptr %1, ptr %5, align 8
  store ptr %2, ptr %6, align 8
  %13 = load ptr, ptr %5, align 8
  store i1 false, ptr %8, align 1
  call void @_ZNSaIcEC1Ev(ptr noundef nonnull align 1 dereferenceable(1) %9) #3
  invoke void @_ZNSt7__cxx1112basic_stringIcSt11char_traitsIcESaIcEEC1EPKcRKS3_(ptr noundef nonnull align 8 dereferenceable(32) %0, ptr noundef @.str.30, ptr noundef nonnull align 1 dereferenceable(1) %9)
          to label %14 unwind label %29

14:                                               ; preds = %3
  call void @_ZNSaIcED1Ev(ptr noundef nonnull align 1 dereferenceable(1) %9) #3
  store i64 0, ptr %7, align 8
  br label %15

15:                                               ; preds = %26, %14
  %16 = load i64, ptr %7, align 8
  %17 = load ptr, ptr %13, align 8
  %18 = getelementptr inbounds ptr, ptr %17, i64 5
  %19 = load ptr, ptr %18, align 8
  %20 = invoke noundef i64 %19(ptr noundef nonnull align 8 dereferenceable(288) %13)
          to label %21 unwind label %33

21:                                               ; preds = %15
  %22 = icmp ult i64 %16, %20
  br i1 %22, label %23, label %37

23:                                               ; preds = %21
  %24 = invoke noundef nonnull align 8 dereferenceable(32) ptr @_ZNSt7__cxx1112basic_stringIcSt11char_traitsIcESaIcEEpLEPKc(ptr noundef nonnull align 8 dereferenceable(32) %0, ptr noundef @.str.12)
          to label %25 unwind label %33

25:                                               ; preds = %23
  br label %26

26:                                               ; preds = %25
  %27 = load i64, ptr %7, align 8
  %28 = add i64 %27, 1
  store i64 %28, ptr %7, align 8
  br label %15, !llvm.loop !39

29:                                               ; preds = %3
  %30 = landingpad { ptr, i32 }
          cleanup
  %31 = extractvalue { ptr, i32 } %30, 0
  store ptr %31, ptr %10, align 8
  %32 = extractvalue { ptr, i32 } %30, 1
  store i32 %32, ptr %11, align 4
  call void @_ZNSaIcED1Ev(ptr noundef nonnull align 1 dereferenceable(1) %9) #3
  br label %79

33:                                               ; preds = %72, %54, %51, %40, %37, %23, %15
  %34 = landingpad { ptr, i32 }
          cleanup
  %35 = extractvalue { ptr, i32 } %34, 0
  store ptr %35, ptr %10, align 8
  %36 = extractvalue { ptr, i32 } %34, 1
  store i32 %36, ptr %11, align 4
  br label %78

37:                                               ; preds = %21
  %38 = invoke noundef nonnull align 8 dereferenceable(32) ptr @_ZNSt7__cxx1112basic_stringIcSt11char_traitsIcESaIcEEpLEPKc(ptr noundef nonnull align 8 dereferenceable(32) %0, ptr noundef @.str.31)
          to label %39 unwind label %33

39:                                               ; preds = %37
  store i64 0, ptr %7, align 8
  br label %40

40:                                               ; preds = %65, %39
  %41 = load i64, ptr %7, align 8
  %42 = load ptr, ptr %13, align 8
  %43 = getelementptr inbounds ptr, ptr %42, i64 5
  %44 = load ptr, ptr %43, align 8
  %45 = invoke noundef i64 %44(ptr noundef nonnull align 8 dereferenceable(288) %13)
          to label %46 unwind label %33

46:                                               ; preds = %40
  %47 = icmp ult i64 %41, %45
  br i1 %47, label %48, label %72

48:                                               ; preds = %46
  %49 = load i64, ptr %7, align 8
  %50 = icmp ne i64 %49, 0
  br i1 %50, label %51, label %54

51:                                               ; preds = %48
  %52 = invoke noundef nonnull align 8 dereferenceable(32) ptr @_ZNSt7__cxx1112basic_stringIcSt11char_traitsIcESaIcEEpLEPKc(ptr noundef nonnull align 8 dereferenceable(32) %0, ptr noundef @.str.3)
          to label %53 unwind label %33

53:                                               ; preds = %51
  br label %54

54:                                               ; preds = %53, %48
  %55 = load ptr, ptr %6, align 8
  %56 = load i64, ptr %7, align 8
  %57 = call noundef nonnull align 8 dereferenceable(8) ptr @_ZNKSt6vectorIPK8VariableSaIS2_EEixEm(ptr noundef nonnull align 8 dereferenceable(24) %55, i64 noundef %56) #3
  %58 = load ptr, ptr %57, align 8
  %59 = load ptr, ptr %58, align 8
  %60 = getelementptr inbounds ptr, ptr %59, i64 6
  %61 = load ptr, ptr %60, align 8
  invoke void %61(ptr dead_on_unwind writable sret(%"class.std::__cxx11::basic_string") align 8 %12, ptr noundef nonnull align 8 dereferenceable(200) %58)
          to label %62 unwind label %33

62:                                               ; preds = %54
  %63 = invoke noundef nonnull align 8 dereferenceable(32) ptr @_ZNSt7__cxx1112basic_stringIcSt11char_traitsIcESaIcEEpLERKS4_(ptr noundef nonnull align 8 dereferenceable(32) %0, ptr noundef nonnull align 8 dereferenceable(32) %12)
          to label %64 unwind label %68

64:                                               ; preds = %62
  call void @_ZNSt7__cxx1112basic_stringIcSt11char_traitsIcESaIcEED1Ev(ptr noundef nonnull align 8 dereferenceable(32) %12) #3
  br label %65

65:                                               ; preds = %64
  %66 = load i64, ptr %7, align 8
  %67 = add i64 %66, 1
  store i64 %67, ptr %7, align 8
  br label %40, !llvm.loop !40

68:                                               ; preds = %62
  %69 = landingpad { ptr, i32 }
          cleanup
  %70 = extractvalue { ptr, i32 } %69, 0
  store ptr %70, ptr %10, align 8
  %71 = extractvalue { ptr, i32 } %69, 1
  store i32 %71, ptr %11, align 4
  call void @_ZNSt7__cxx1112basic_stringIcSt11char_traitsIcESaIcEED1Ev(ptr noundef nonnull align 8 dereferenceable(32) %12) #3
  br label %78

72:                                               ; preds = %46
  %73 = invoke noundef nonnull align 8 dereferenceable(32) ptr @_ZNSt7__cxx1112basic_stringIcSt11char_traitsIcESaIcEEpLEPKc(ptr noundef nonnull align 8 dereferenceable(32) %0, ptr noundef @.str.28)
          to label %74 unwind label %33

74:                                               ; preds = %72
  store i1 true, ptr %8, align 1
  %75 = load i1, ptr %8, align 1
  br i1 %75, label %77, label %76

76:                                               ; preds = %74
  call void @_ZNSt7__cxx1112basic_stringIcSt11char_traitsIcESaIcEED1Ev(ptr noundef nonnull align 8 dereferenceable(32) %0) #3
  br label %77

77:                                               ; preds = %76, %74
  ret void

78:                                               ; preds = %68, %33
  call void @_ZNSt7__cxx1112basic_stringIcSt11char_traitsIcESaIcEED1Ev(ptr noundef nonnull align 8 dereferenceable(32) %0) #3
  br label %79

79:                                               ; preds = %78, %29
  %80 = load ptr, ptr %10, align 8
  %81 = load i32, ptr %11, align 4
  %82 = insertvalue { ptr, i32 } poison, ptr %80, 0
  %83 = insertvalue { ptr, i32 } %82, i32 %81, 1
  resume { ptr, i32 } %83
}