; Function Attrs: mustprogress uwtable
define dso_local void @_ZNK13ArrayVariable20make_print_index_strB5cxx11ERKSt6vectorIPK8VariableSaIS3_EE(ptr dead_on_unwind noalias writable sret(%"class.std::__cxx11::basic_string") align 8 %0, ptr noundef nonnull align 8 dereferenceable(288) %1, ptr nocapture noundef nonnull readonly align 8 dereferenceable(24) %2) local_unnamed_addr #3 align 2 personality ptr @__gxx_personality_v0 {
  %4 = alloca %"class.std::allocator.20", align 1
  %5 = alloca %"class.std::__cxx11::basic_string", align 8
  call void @_ZNSaIcEC1Ev(ptr noundef nonnull align 1 dereferenceable(1) %4) #19
  invoke void @_ZNSt7__cxx1112basic_stringIcSt11char_traitsIcESaIcEEC1EPKcRKS3_(ptr noundef nonnull align 8 dereferenceable(32) %0, ptr noundef nonnull @.str.30, ptr noundef nonnull align 1 dereferenceable(1) %4)
          to label %6 unwind label %18

6:                                                ; preds = %3
  call void @_ZNSaIcED1Ev(ptr noundef nonnull align 1 dereferenceable(1) %4) #19
  br label %7

7:                                                ; preds = %16, %6
  %.012 = phi i64 [ 0, %6 ], [ %17, %16 ]
  %8 = load ptr, ptr %1, align 8
  %9 = getelementptr inbounds i8, ptr %8, i64 40
  %10 = load ptr, ptr %9, align 8
  %11 = invoke noundef i64 %10(ptr noundef nonnull align 8 dereferenceable(288) %1)
          to label %12 unwind label %.loopexit.split-lp.loopexit

12:                                               ; preds = %7
  %13 = icmp ult i64 %.012, %11
  br i1 %13, label %14, label %20

14:                                               ; preds = %12
  %15 = invoke noundef nonnull align 8 dereferenceable(32) ptr @_ZNSt7__cxx1112basic_stringIcSt11char_traitsIcESaIcEEpLEPKc(ptr noundef nonnull align 8 dereferenceable(32) %0, ptr noundef nonnull @.str.12)
          to label %16 unwind label %.loopexit.split-lp.loopexit

16:                                               ; preds = %14
  %17 = add nuw i64 %.012, 1
  br label %7, !llvm.loop !40

18:                                               ; preds = %3
  %19 = landingpad { ptr, i32 }
          cleanup
  call void @_ZNSaIcED1Ev(ptr noundef nonnull align 1 dereferenceable(1) %4) #19
  br label %48

.loopexit:                                        ; preds = %.preheader, %30, %34
  %lpad.loopexit = landingpad { ptr, i32 }
          cleanup
  br label %.loopexit.split-lp

.loopexit.split-lp.loopexit:                      ; preds = %14, %7
  %lpad.loopexit17 = landingpad { ptr, i32 }
          cleanup
  br label %.loopexit.split-lp

.loopexit.split-lp.loopexit.split-lp:             ; preds = %45, %20
  %lpad.loopexit.split-lp18 = landingpad { ptr, i32 }
          cleanup
  br label %.loopexit.split-lp

20:                                               ; preds = %12
  %21 = invoke noundef nonnull align 8 dereferenceable(32) ptr @_ZNSt7__cxx1112basic_stringIcSt11char_traitsIcESaIcEEpLEPKc(ptr noundef nonnull align 8 dereferenceable(32) %0, ptr noundef nonnull @.str.31)
          to label %.preheader unwind label %.loopexit.split-lp.loopexit.split-lp

.preheader:                                       ; preds = %20, %41
  %.113 = phi i64 [ %42, %41 ], [ 0, %20 ]
  %22 = load ptr, ptr %1, align 8
  %23 = getelementptr inbounds i8, ptr %22, i64 40
  %24 = load ptr, ptr %23, align 8
  %25 = invoke noundef i64 %24(ptr noundef nonnull align 8 dereferenceable(288) %1)
          to label %26 unwind label %.loopexit

26:                                               ; preds = %.preheader
  %27 = icmp ult i64 %.113, %25
  br i1 %27, label %28, label %45

28:                                               ; preds = %26
  %.not = icmp eq i64 %.113, 0
  br i1 %.not, label %.split, label %30

.split:                                           ; preds = %28
  %29 = load ptr, ptr %2, align 8
  br label %34

30:                                               ; preds = %28
  %31 = invoke noundef nonnull align 8 dereferenceable(32) ptr @_ZNSt7__cxx1112basic_stringIcSt11char_traitsIcESaIcEEpLEPKc(ptr noundef nonnull align 8 dereferenceable(32) %0, ptr noundef nonnull @.str.3)
          to label %.split14 unwind label %.loopexit

.split14:                                         ; preds = %30
  %32 = load ptr, ptr %2, align 8
  %33 = getelementptr inbounds ptr, ptr %32, i64 %.113
  br label %34

34:                                               ; preds = %.split14, %.split
  %phi.call = phi ptr [ %29, %.split ], [ %33, %.split14 ]
  %35 = load ptr, ptr %phi.call, align 8
  %36 = load ptr, ptr %35, align 8
  %37 = getelementptr inbounds i8, ptr %36, i64 48
  %38 = load ptr, ptr %37, align 8
  invoke void %38(ptr dead_on_unwind nonnull writable sret(%"class.std::__cxx11::basic_string") align 8 %5, ptr noundef nonnull align 8 dereferenceable(200) %35)
          to label %39 unwind label %.loopexit

39:                                               ; preds = %34
  %40 = invoke noundef nonnull align 8 dereferenceable(32) ptr @_ZNSt7__cxx1112basic_stringIcSt11char_traitsIcESaIcEEpLERKS4_(ptr noundef nonnull align 8 dereferenceable(32) %0, ptr noundef nonnull align 8 dereferenceable(32) %5)
          to label %41 unwind label %43

41:                                               ; preds = %39
  call void @_ZNSt7__cxx1112basic_stringIcSt11char_traitsIcESaIcEED1Ev(ptr noundef nonnull align 8 dereferenceable(32) %5) #19
  %42 = add nuw i64 %.113, 1
  br label %.preheader, !llvm.loop !41

43:                                               ; preds = %39
  %44 = landingpad { ptr, i32 }
          cleanup
  call void @_ZNSt7__cxx1112basic_stringIcSt11char_traitsIcESaIcEED1Ev(ptr noundef nonnull align 8 dereferenceable(32) %5) #19
  br label %.loopexit.split-lp

45:                                               ; preds = %26
  %46 = invoke noundef nonnull align 8 dereferenceable(32) ptr @_ZNSt7__cxx1112basic_stringIcSt11char_traitsIcESaIcEEpLEPKc(ptr noundef nonnull align 8 dereferenceable(32) %0, ptr noundef nonnull @.str.28)
          to label %47 unwind label %.loopexit.split-lp.loopexit.split-lp

47:                                               ; preds = %45
  ret void

.loopexit.split-lp:                               ; preds = %.loopexit, %.loopexit.split-lp.loopexit.split-lp, %.loopexit.split-lp.loopexit, %43
  %.pn = phi { ptr, i32 } [ %44, %43 ], [ %lpad.loopexit, %.loopexit ], [ %lpad.loopexit17, %.loopexit.split-lp.loopexit ], [ %lpad.loopexit.split-lp18, %.loopexit.split-lp.loopexit.split-lp ]
  call void @_ZNSt7__cxx1112basic_stringIcSt11char_traitsIcESaIcEED1Ev(ptr noundef nonnull align 8 dereferenceable(32) %0) #19
  br label %48

48:                                               ; preds = %.loopexit.split-lp, %18
  %.pn.pn = phi { ptr, i32 } [ %.pn, %.loopexit.split-lp ], [ %19, %18 ]
  resume { ptr, i32 } %.pn.pn
}